; Function Attrs: mustprogress uwtable
define void @_ZNK8QuantLib20FdmHestonHullWhiteOp11apply_mixedERKNS_5ArrayE(ptr dead_on_unwind noalias writable sret(%"class.QuantLib::Array") align 8 %agg.result, ptr noundef nonnull align 8 dereferenceable(1040) %this, ptr noundef nonnull align 8 dereferenceable(16) %r) unnamed_addr #6 align 2 personality ptr @__gxx_personality_v0 {
entry:
  %ref.tmp = alloca %"class.QuantLib::Array", align 8
  %ref.tmp2 = alloca %"class.QuantLib::Array", align 8
  call void @llvm.lifetime.start.p0(i64 16, ptr nonnull %ref.tmp) #24
  %hestonCorrMap_ = getelementptr inbounds nuw i8, ptr %this, i64 64
  call void @_ZNK8QuantLib17NinePointLinearOp5applyERKNS_5ArrayE(ptr dead_on_unwind nonnull writable sret(%"class.QuantLib::Array") align 8 %ref.tmp, ptr noundef nonnull align 8 dereferenceable(176) %hestonCorrMap_, ptr noundef nonnull align 8 dereferenceable(16) %r)
  call void @llvm.lifetime.start.p0(i64 16, ptr nonnull %ref.tmp2) #24
  %equityIrCorrMap_ = getelementptr inbounds nuw i8, ptr %this, i64 240
  invoke void @_ZNK8QuantLib17NinePointLinearOp5applyERKNS_5ArrayE(ptr dead_on_unwind nonnull writable sret(%"class.QuantLib::Array") align 8 %ref.tmp2, ptr noundef nonnull align 8 dereferenceable(176) %equityIrCorrMap_, ptr noundef nonnull align 8 dereferenceable(16) %r)
          to label %invoke.cont unwind label %lpad

invoke.cont:                                      ; preds = %entry
  invoke void @_ZN8QuantLibplEONS_5ArrayES1_(ptr dead_on_unwind writable sret(%"class.QuantLib::Array") align 8 %agg.result, ptr noundef nonnull align 8 dereferenceable(16) %ref.tmp, ptr noundef nonnull align 8 dereferenceable(16) %ref.tmp2)
          to label %invoke.cont4 unwind label %lpad3

invoke.cont4:                                     ; preds = %invoke.cont
  %0 = load ptr, ptr %ref.tmp2, align 8, !tbaa !24
  %cmp.not.i.i = icmp eq ptr %0, null
  br i1 %cmp.not.i.i, label %_ZN8QuantLib5ArrayD2Ev.exit, label %_ZNKSt14default_deleteIA_dEclIdEENSt9enable_ifIXsr14is_convertibleIPA_T_PS0_EE5valueEvE4typeEPS4_.exit.i.i

_ZNKSt14default_deleteIA_dEclIdEENSt9enable_ifIXsr14is_convertibleIPA_T_PS0_EE5valueEvE4typeEPS4_.exit.i.i: ; preds = %invoke.cont4
  call void @_ZdaPv(ptr noundef nonnull %0) #27
  br label %_ZN8QuantLib5ArrayD2Ev.exit

_ZN8QuantLib5ArrayD2Ev.exit:                      ; preds = %invoke.cont4, %_ZNKSt14default_deleteIA_dEclIdEENSt9enable_ifIXsr14is_convertibleIPA_T_PS0_EE5valueEvE4typeEPS4_.exit.i.i
  call void @llvm.lifetime.end.p0(i64 16, ptr nonnull %ref.tmp2) #24
  %1 = load ptr, ptr %ref.tmp, align 8, !tbaa !24
  %cmp.not.i.i3 = icmp eq ptr %1, null
  br i1 %cmp.not.i.i3, label %_ZN8QuantLib5ArrayD2Ev.exit5, label %_ZNKSt14default_deleteIA_dEclIdEENSt9enable_ifIXsr14is_convertibleIPA_T_PS0_EE5valueEvE4typeEPS4_.exit.i.i4

_ZNKSt14default_deleteIA_dEclIdEENSt9enable_ifIXsr14is_convertibleIPA_T_PS0_EE5valueEvE4typeEPS4_.exit.i.i4: ; preds = %_ZN8QuantLib5ArrayD2Ev.exit
  call void @_ZdaPv(ptr noundef nonnull %1) #27
  br label %_ZN8QuantLib5ArrayD2Ev.exit5

_ZN8QuantLib5ArrayD2Ev.exit5:                     ; preds = %_ZN8QuantLib5ArrayD2Ev.exit, %_ZNKSt14default_deleteIA_dEclIdEENSt9enable_ifIXsr14is_convertibleIPA_T_PS0_EE5valueEvE4typeEPS4_.exit.i.i4
  call void @llvm.lifetime.end.p0(i64 16, ptr nonnull %ref.tmp) #24
  ret void

lpad:                                             ; preds = %entry
  %2 = landingpad { ptr, i32 }
          cleanup
  br label %ehcleanup

lpad3:                                            ; preds = %invoke.cont
  %3 = landingpad { ptr, i32 }
          cleanup
  %4 = load ptr, ptr %ref.tmp2, align 8, !tbaa !24
  %cmp.not.i.i6 = icmp eq ptr %4, null
  br i1 %cmp.not.i.i6, label %ehcleanup, label %_ZNKSt14default_deleteIA_dEclIdEENSt9enable_ifIXsr14is_convertibleIPA_T_PS0_EE5valueEvE4typeEPS4_.exit.i.i7

_ZNKSt14default_deleteIA_dEclIdEENSt9enable_ifIXsr14is_convertibleIPA_T_PS0_EE5valueEvE4typeEPS4_.exit.i.i7: ; preds = %lpad3
  call void @_ZdaPv(ptr noundef nonnull %4) #27
  br label %ehcleanup

ehcleanup:                                        ; preds = %_ZNKSt14default_deleteIA_dEclIdEENSt9enable_ifIXsr14is_convertibleIPA_T_PS0_EE5valueEvE4typeEPS4_.exit.i.i7, %lpad3, %lpad
  %.pn = phi { ptr, i32 } [ %2, %lpad ], [ %3, %lpad3 ], [ %3, %_ZNKSt14default_deleteIA_dEclIdEENSt9enable_ifIXsr14is_convertibleIPA_T_PS0_EE5valueEvE4typeEPS4_.exit.i.i7 ]
  call void @llvm.lifetime.end.p0(i64 16, ptr nonnull %ref.tmp2) #24
  %5 = load ptr, ptr %ref.tmp, align 8, !tbaa !24
  %cmp.not.i.i9 = icmp eq ptr %5, null
  br i1 %cmp.not.i.i9, label %_ZN8QuantLib5ArrayD2Ev.exit11, label %_ZNKSt14default_deleteIA_dEclIdEENSt9enable_ifIXsr14is_convertibleIPA_T_PS0_EE5valueEvE4typeEPS4_.exit.i.i10

_ZNKSt14default_deleteIA_dEclIdEENSt9enable_ifIXsr14is_convertibleIPA_T_PS0_EE5valueEvE4typeEPS4_.exit.i.i10: ; preds = %ehcleanup
  call void @_ZdaPv(ptr noundef nonnull %5) #27
  br label %_ZN8QuantLib5ArrayD2Ev.exit11

_ZN8QuantLib5ArrayD2Ev.exit11:                    ; preds = %ehcleanup, %_ZNKSt14default_deleteIA_dEclIdEENSt9enable_ifIXsr14is_convertibleIPA_T_PS0_EE5valueEvE4typeEPS4_.exit.i.i10
  call void @llvm.lifetime.end.p0(i64 16, ptr nonnull %ref.tmp) #24
  resume { ptr, i32 } %.pn
}